target datalayout = "e-m:e-p270:32:32-p271:32:32-p272:64:64-i64:64-i128:128-f80:128-n8:16:32:64-S128"
target triple = "x86_64-pc-linux-gnu"

%struct._packet_info = type { ptr, ptr, i32, i32, %struct.nstime_t, %struct.nstime_t, %struct.nstime_t, i8, ptr, ptr, ptr, ptr, %struct._address, %struct._address, %struct._address, %struct._address, %struct._address, %struct._address, i32, ptr, i8, [3 x i8], %struct.anon, i32, i32, i32, i32, ptr, i8, ptr, ptr, i16, i16, i32, i32, i16, i32, i32, ptr, ptr, ptr, i8, i8, i16, i16, i16, i32, i16, i16, ptr, ptr, ptr, ptr, ptr, i32, i32 }
%struct.nstime_t = type { i64, i32 }
%struct._address = type { i32, i32, ptr, ptr }
%struct.anon = type { i8, [3 x i8] }

@hf_ma_wfp_capture_flow_context = internal global i32 0, align 4
@hf_ma_wfp_capture_payload_length = internal global i32 0, align 4
@ett_ma_wfp_capture_v4 = internal global i32 0, align 4
@proto_ma_wfp_capture2_v4 = internal global i32 0, align 4
@ip_dissector_table = internal global ptr null, align 8
@hf_ip_proto = internal global i32 0, align 4
@.str.380 = private unnamed_addr constant [8 x i8] c"%s (%u)\00", align 1

; Function Attrs: null_pointer_is_valid sspstrong uwtable
define internal i32 @dissect_ma_wfp_capture_v4_common(ptr noundef %0, ptr noundef %1, ptr noundef %2, i32 noundef %3) #0 {
  %5 = alloca ptr, align 8
  %6 = alloca ptr, align 8
  %7 = alloca ptr, align 8
  %8 = alloca i32, align 4
  %9 = alloca ptr, align 8
  %10 = alloca ptr, align 8
  %11 = alloca i32, align 4
  %12 = alloca i32, align 4
  %13 = alloca i32, align 4
  %14 = alloca ptr, align 8
  store ptr %0, ptr %5, align 8
  store ptr %1, ptr %6, align 8
  store ptr %2, ptr %7, align 8
  store i32 %3, ptr %8, align 4
  call void @llvm.lifetime.start.p0(i64 8, ptr %9) #9
  call void @llvm.lifetime.start.p0(i64 8, ptr %10) #9
  call void @llvm.lifetime.start.p0(i64 4, ptr %11) #9
  store i32 0, ptr %11, align 4
  call void @llvm.lifetime.start.p0(i64 4, ptr %12) #9
  call void @llvm.lifetime.start.p0(i64 4, ptr %13) #9
  call void @llvm.lifetime.start.p0(i64 8, ptr %14) #9
  %15 = load ptr, ptr %7, align 8
  %16 = load i32, ptr %8, align 4
  %17 = load ptr, ptr %5, align 8
  %18 = call ptr @proto_tree_add_item(ptr noundef %15, i32 noundef %16, ptr noundef %17, i32 noundef 0, i32 noundef -1, i32 noundef 0)
  store ptr %18, ptr %9, align 8
  %19 = load ptr, ptr %9, align 8
  %20 = load i32, ptr @ett_ma_wfp_capture_v4, align 4
  %21 = call ptr @proto_item_add_subtree(ptr noundef %19, i32 noundef %20)
  store ptr %21, ptr %10, align 8
  %22 = load ptr, ptr %10, align 8
  %23 = load ptr, ptr %5, align 8
  %24 = load ptr, ptr %6, align 8
  %25 = load i32, ptr %11, align 4
  %26 = load ptr, ptr %9, align 8
  call void @add_ipv4_src_address(ptr noundef %22, ptr noundef %23, ptr noundef %24, i32 noundef %25, ptr noundef %26)
  %27 = load i32, ptr %11, align 4
  %28 = add i32 %27, 4
  store i32 %28, ptr %11, align 4
  %29 = load ptr, ptr %10, align 8
  %30 = load ptr, ptr %5, align 8
  %31 = load ptr, ptr %6, align 8
  %32 = load i32, ptr %11, align 4
  %33 = load ptr, ptr %9, align 8
  call void @add_ipv4_dst_address(ptr noundef %29, ptr noundef %30, ptr noundef %31, i32 noundef %32, ptr noundef %33)
  %34 = load i32, ptr %11, align 4
  %35 = add i32 %34, 4
  store i32 %35, ptr %11, align 4
  %36 = load ptr, ptr %10, align 8
  %37 = load i32, ptr @hf_ip_proto, align 4
  %38 = load ptr, ptr %5, align 8
  %39 = load i32, ptr %11, align 4
  %40 = call ptr @proto_tree_add_item_ret_uint(ptr noundef %36, i32 noundef %37, ptr noundef %38, i32 noundef %39, i32 noundef 1, i32 noundef 0, ptr noundef %12)
  %41 = load ptr, ptr %6, align 8
  %42 = getelementptr inbounds nuw %struct._packet_info, ptr %41, i32 0, i32 1
  %43 = load ptr, ptr %42, align 8
  %44 = load i32, ptr %12, align 4
  %45 = call ptr @ipprotostr(i32 noundef %44)
  %46 = load i32, ptr %12, align 4
  call void (ptr, i32, ptr, ...) @col_add_fstr(ptr noundef %43, i32 noundef 25, ptr noundef @.str.380, ptr noundef %45, i32 noundef %46)
  %47 = load i32, ptr %11, align 4
  %48 = add i32 %47, 1
  store i32 %48, ptr %11, align 4
  %49 = load i32, ptr %8, align 4
  %50 = load i32, ptr @proto_ma_wfp_capture2_v4, align 4
  %51 = icmp eq i32 %49, %50
  br i1 %51, label %52, label %60

52:                                               ; preds = %4
  %53 = load ptr, ptr %10, align 8
  %54 = load i32, ptr @hf_ma_wfp_capture_flow_context, align 4
  %55 = load ptr, ptr %5, align 8
  %56 = load i32, ptr %11, align 4
  %57 = call ptr @proto_tree_add_item(ptr noundef %53, i32 noundef %54, ptr noundef %55, i32 noundef %56, i32 noundef 8, i32 noundef -2147483648)
  %58 = load i32, ptr %11, align 4
  %59 = add i32 %58, 8
  store i32 %59, ptr %11, align 4
  br label %60

60:                                               ; preds = %52, %4
  %61 = load ptr, ptr %10, align 8
  %62 = load i32, ptr @hf_ma_wfp_capture_payload_length, align 4
  %63 = load ptr, ptr %5, align 8
  %64 = load i32, ptr %11, align 4
  %65 = call ptr @proto_tree_add_item_ret_uint(ptr noundef %61, i32 noundef %62, ptr noundef %63, i32 noundef %64, i32 noundef 2, i32 noundef -2147483648, ptr noundef %13)
  %66 = load i32, ptr %11, align 4
  %67 = add i32 %66, 2
  store i32 %67, ptr %11, align 4
  %68 = load ptr, ptr %9, align 8
  %69 = load i32, ptr %11, align 4
  call void @proto_item_set_len(ptr noundef %68, i32 noundef %69)
  %70 = load ptr, ptr %5, align 8
  %71 = load i32, ptr %11, align 4
  %72 = call ptr @tvb_new_subset_remaining(ptr noundef %70, i32 noundef %71)
  store ptr %72, ptr %14, align 8
  %73 = load ptr, ptr @ip_dissector_table, align 8
  %74 = load i32, ptr %12, align 4
  %75 = load ptr, ptr %14, align 8
  %76 = load ptr, ptr %6, align 8
  %77 = load ptr, ptr %7, align 8
  %78 = call i32 @dissector_try_uint_with_data(ptr noundef %73, i32 noundef %74, ptr noundef %75, ptr noundef %76, ptr noundef %77, i1 noundef zeroext true, ptr noundef null)
  %79 = icmp ne i32 %78, 0
  br i1 %79, label %85, label %80

80:                                               ; preds = %60
  %81 = load ptr, ptr %14, align 8
  %82 = load ptr, ptr %6, align 8
  %83 = load ptr, ptr %7, align 8
  %84 = call i32 @call_data_dissector(ptr noundef %81, ptr noundef %82, ptr noundef %83)
  br label %85

85:                                               ; preds = %80, %60
  %86 = load ptr, ptr %5, align 8
  %87 = call i32 @tvb_captured_length(ptr noundef %86)
  call void @llvm.lifetime.end.p0(i64 8, ptr %14) #9
  call void @llvm.lifetime.end.p0(i64 4, ptr %13) #9
  call void @llvm.lifetime.end.p0(i64 4, ptr %12) #9
  call void @llvm.lifetime.end.p0(i64 4, ptr %11) #9
  call void @llvm.lifetime.end.p0(i64 8, ptr %10) #9
  call void @llvm.lifetime.end.p0(i64 8, ptr %9) #9
  ret i32 %87
}