; Function Attrs: null_pointer_is_valid sspstrong uwtable
define internal fastcc i32 @dissect_ma_wfp_capture_v4_common(ptr noundef %0, ptr noundef initializes((160, 184), (208, 232)) %1, ptr noundef %2, i32 noundef %3) unnamed_addr #0 {
  %5 = alloca i32, align 4
  %6 = alloca i32, align 4
  call void @llvm.lifetime.start.p0(i64 4, ptr nonnull %5) #5
  call void @llvm.lifetime.start.p0(i64 4, ptr nonnull %6) #5
  %7 = tail call ptr @proto_tree_add_item(ptr noundef %2, i32 noundef %3, ptr noundef %0, i32 noundef 0, i32 noundef -1, i32 noundef 0)
  %8 = load i32, ptr @ett_ma_wfp_capture_v4, align 4
  %9 = tail call ptr @proto_item_add_subtree(ptr noundef %7, i32 noundef %8)
  tail call fastcc void @add_ipv4_src_address(ptr noundef %9, ptr noundef %0, ptr noundef %1, ptr noundef %7)
  tail call fastcc void @add_ipv4_dst_address(ptr noundef %9, ptr noundef %0, ptr noundef %1, i32 noundef 4, ptr noundef %7)
  %10 = load i32, ptr @hf_ip_proto, align 4
  %11 = call ptr @proto_tree_add_item_ret_uint(ptr noundef %9, i32 noundef %10, ptr noundef %0, i32 noundef 8, i32 noundef 1, i32 noundef 0, ptr noundef nonnull %5)
  %12 = getelementptr inbounds nuw i8, ptr %1, i64 8
  %13 = load ptr, ptr %12, align 8
  %14 = load i32, ptr %5, align 4
  %15 = call ptr @ipprotostr(i32 noundef %14)
  %16 = load i32, ptr %5, align 4
  call void (ptr, i32, ptr, ...) @col_add_fstr(ptr noundef %13, i32 noundef 25, ptr noundef nonnull @.str.380, ptr noundef %15, i32 noundef %16)
  %17 = load i32, ptr @proto_ma_wfp_capture2_v4, align 4
  %18 = icmp eq i32 %3, %17
  br i1 %18, label %19, label %22

19:                                               ; preds = %4
  %20 = load i32, ptr @hf_ma_wfp_capture_flow_context, align 4
  %21 = call ptr @proto_tree_add_item(ptr noundef %9, i32 noundef %20, ptr noundef %0, i32 noundef 9, i32 noundef 8, i32 noundef -2147483648)
  br label %22

22:                                               ; preds = %19, %4
  %.0 = phi i32 [ 17, %19 ], [ 9, %4 ]
  %23 = load i32, ptr @hf_ma_wfp_capture_payload_length, align 4
  %24 = call ptr @proto_tree_add_item_ret_uint(ptr noundef %9, i32 noundef %23, ptr noundef %0, i32 noundef %.0, i32 noundef 2, i32 noundef -2147483648, ptr noundef nonnull %6)
  %25 = or disjoint i32 %.0, 2
  call void @proto_item_set_len(ptr noundef %7, i32 noundef %25)
  %26 = call ptr @tvb_new_subset_remaining(ptr noundef %0, i32 noundef %25)
  %27 = load ptr, ptr @ip_dissector_table, align 8
  %28 = load i32, ptr %5, align 4
  %29 = call i32 @dissector_try_uint_with_data(ptr noundef %27, i32 noundef %28, ptr noundef %26, ptr noundef %1, ptr noundef %2, i1 noundef zeroext true, ptr noundef null)
  %.not = icmp eq i32 %29, 0
  br i1 %.not, label %30, label %32

30:                                               ; preds = %22
  %31 = call i32 @call_data_dissector(ptr noundef %26, ptr noundef %1, ptr noundef %2)
  br label %32

32:                                               ; preds = %30, %22
  %33 = call i32 @tvb_captured_length(ptr noundef %0)
  call void @llvm.lifetime.end.p0(i64 4, ptr nonnull %6) #5
  call void @llvm.lifetime.end.p0(i64 4, ptr nonnull %5) #5
  ret i32 %33
}